target datalayout = "e-m:e-p270:32:32-p271:32:32-p272:64:64-i64:64-i128:128-f80:128-n8:16:32:64-S128"
target triple = "x86_64-pc-linux-gnu"

%struct._zend_assert_globals = type { %struct._zval_struct, ptr, i8, i8, i8, i8 }
%struct._zval_struct = type { %union._zend_value, %union.anon, %union.anon.2 }
%union._zend_value = type { i64 }
%union.anon = type { i32 }
%union.anon.2 = type { i32 }
%struct._zend_executor_globals = type { %struct._zval_struct, %struct._zval_struct, [32 x ptr], ptr, ptr, %struct._zend_array, %struct._zend_array, ptr, i32, i32, ptr, ptr, ptr, ptr, ptr, ptr, i64, ptr, ptr, i32, i32, i64, i32, i32, i32, i8, i8, %struct.zend_atomic_bool_s, %struct.zend_atomic_bool_s, ptr, i64, ptr, ptr, %struct._zend_array, %struct._zend_array, i32, i8, %struct._zval_struct, %struct._zval_struct, %struct._zend_stack, %struct._zend_stack, %struct._zend_stack, ptr, i32, i32, i64, ptr, ptr, ptr, %struct._zend_objects_store, ptr, ptr, ptr, [3 x %struct._zend_op], ptr, i8, i8, i64, i32, i32, ptr, [16 x %struct._HashTableIterator], ptr, %union._zend_function, %struct._zend_op, %struct._zend_array, i64, %struct.zend_get_gc_buffer, ptr, ptr, ptr, i64, i8, i32, ptr, ptr, i64, %struct._zend_call_stack, i64, i64, [6 x ptr] }
%struct.zend_atomic_bool_s = type { i8 }
%struct._zend_stack = type { i32, i32, i32, ptr }
%struct._zend_objects_store = type { ptr, i32, i32, i32 }
%struct._HashTableIterator = type { ptr, i32, i32 }
%union._zend_function = type { %struct._zend_op_array }
%struct._zend_op_array = type { i8, [3 x i8], i32, ptr, ptr, ptr, i32, i32, ptr, ptr, ptr, ptr, i32, i32, i32, i32, ptr, ptr, ptr, ptr, ptr, i32, i32, ptr, ptr, ptr, i32, i32, i32, i32, ptr, ptr, [6 x ptr] }
%struct._zend_op = type { ptr, %union._znode_op, %union._znode_op, %union._znode_op, i32, i32, i8, i8, i8, i8 }
%union._znode_op = type { i32 }
%struct._zend_array = type { %struct._zend_refcounted_h, %union.anon.5, i32, %union.anon.7, i32, i32, i32, i32, i64, ptr }
%struct._zend_refcounted_h = type { i32, %union.anon.3 }
%union.anon.3 = type { i32 }
%union.anon.5 = type { i32 }
%union.anon.7 = type { ptr }
%struct.zend_get_gc_buffer = type { ptr, ptr, ptr }
%struct._zend_call_stack = type { ptr, i64 }
%struct._zend_string = type { %struct._zend_refcounted_h, i64, i64, [1 x i8] }

@assert_globals = hidden global %struct._zend_assert_globals zeroinitializer, align 8
@executor_globals = external global %struct._zend_executor_globals, align 8
@.str.13 = private unnamed_addr constant [42 x i8] c"assert.callback INI setting is deprecated\00", align 1

; Function Attrs: nounwind uwtable
define internal zeroext i1 @php_must_emit_ini_deprecation(i32 noundef %0) #0 {
  %2 = alloca i32, align 4
  store i32 %0, ptr %2, align 4
  %3 = load i32, ptr %2, align 4
  %4 = icmp ne i32 %3, 8
  br i1 %4, label %5, label %11

5:                                                ; preds = %1
  %6 = load i32, ptr %2, align 4
  %7 = icmp ne i32 %6, 2
  br i1 %7, label %8, label %11

8:                                                ; preds = %5
  %9 = load i32, ptr %2, align 4
  %10 = icmp ne i32 %9, 64
  br label %11

11:                                               ; preds = %8, %5, %1
  %12 = phi i1 [ false, %5 ], [ false, %1 ], [ %10, %8 ]
  ret i1 %12
}

; Function Attrs: nounwind uwtable
define internal i32 @OnChangeCallback(ptr noundef %0, ptr noundef %1, ptr noundef %2, ptr noundef %3, ptr noundef %4, i32 noundef %5) #0 {
  %7 = alloca i32, align 4
  %8 = alloca ptr, align 8
  %9 = alloca ptr, align 8
  %10 = alloca ptr, align 8
  %11 = alloca ptr, align 8
  %12 = alloca ptr, align 8
  %13 = alloca ptr, align 8
  %14 = alloca ptr, align 8
  %15 = alloca ptr, align 8
  %16 = alloca i32, align 4
  %17 = alloca ptr, align 8
  %18 = alloca ptr, align 8
  store ptr %0, ptr %11, align 8
  store ptr %1, ptr %12, align 8
  store ptr %2, ptr %13, align 8
  store ptr %3, ptr %14, align 8
  store ptr %4, ptr %15, align 8
  store i32 %5, ptr %16, align 4
  %19 = load ptr, ptr getelementptr inbounds (%struct._zend_executor_globals, ptr @executor_globals, i32 0, i32 17), align 8
  %20 = icmp ne ptr %19, null
  br i1 %20, label %21, label %76

21:                                               ; preds = %6
  store ptr @assert_globals, ptr %9, align 8
  %22 = load ptr, ptr %9, align 8
  %23 = getelementptr inbounds %struct._zval_struct, ptr %22, i32 0, i32 1
  %24 = load i8, ptr %23, align 8
  %25 = zext i8 %24 to i32
  %26 = icmp ne i32 %25, 0
  br i1 %26, label %27, label %30

27:                                               ; preds = %21
  call void @zval_ptr_dtor(ptr noundef @assert_globals)
  br label %28

28:                                               ; preds = %27
  store i32 0, ptr getelementptr inbounds (%struct._zval_struct, ptr @assert_globals, i32 0, i32 1), align 8
  br label %29

29:                                               ; preds = %28
  br label %30

30:                                               ; preds = %29, %21
  %31 = load ptr, ptr %12, align 8
  %32 = icmp ne ptr %31, null
  br i1 %32, label %33, label %75

33:                                               ; preds = %30
  store ptr @assert_globals, ptr %10, align 8
  %34 = load ptr, ptr %10, align 8
  %35 = getelementptr inbounds %struct._zval_struct, ptr %34, i32 0, i32 1
  %36 = load i8, ptr %35, align 8
  %37 = zext i8 %36 to i32
  %38 = icmp ne i32 %37, 0
  br i1 %38, label %44, label %39

39:                                               ; preds = %33
  %40 = load ptr, ptr %12, align 8
  %41 = getelementptr inbounds %struct._zend_string, ptr %40, i32 0, i32 2
  %42 = load i64, ptr %41, align 8
  %43 = icmp ne i64 %42, 0
  br i1 %43, label %44, label %75

44:                                               ; preds = %39, %33
  %45 = load i32, ptr %16, align 4
  %46 = call zeroext i1 @php_must_emit_ini_deprecation(i32 noundef %45)
  br i1 %46, label %47, label %48

47:                                               ; preds = %44
  call void (ptr, i32, ptr, ...) @php_error_docref(ptr noundef null, i32 noundef 8192, ptr noundef @.str.13)
  br label %48

48:                                               ; preds = %47, %44
  br label %49

49:                                               ; preds = %48
  store ptr @assert_globals, ptr %17, align 8
  %50 = load ptr, ptr %12, align 8
  store ptr %50, ptr %18, align 8
  %51 = load ptr, ptr %18, align 8
  %52 = load ptr, ptr %17, align 8
  %53 = getelementptr inbounds %struct._zval_struct, ptr %52, i32 0, i32 0
  store ptr %51, ptr %53, align 8
  %54 = load ptr, ptr %18, align 8
  %55 = getelementptr inbounds %struct._zend_string, ptr %54, i32 0, i32 0
  %56 = getelementptr inbounds %struct._zend_refcounted_h, ptr %55, i32 0, i32 1
  %57 = load i32, ptr %56, align 4
  store i32 %57, ptr %7, align 4
  %58 = load i32, ptr %7, align 4
  %59 = and i32 %58, 1008
  %60 = and i32 %59, 64
  %61 = icmp ne i32 %60, 0
  br i1 %61, label %62, label %65

62:                                               ; preds = %49
  %63 = load ptr, ptr %17, align 8
  %64 = getelementptr inbounds %struct._zval_struct, ptr %63, i32 0, i32 1
  store i32 6, ptr %64, align 8
  br label %73

65:                                               ; preds = %49
  %66 = load ptr, ptr %18, align 8
  %67 = getelementptr inbounds %struct._zend_string, ptr %66, i32 0, i32 0
  store ptr %67, ptr %8, align 8
  %68 = load ptr, ptr %8, align 8
  %69 = load i32, ptr %68, align 4
  %70 = add i32 %69, 1
  store i32 %70, ptr %68, align 4
  %71 = load ptr, ptr %17, align 8
  %72 = getelementptr inbounds %struct._zval_struct, ptr %71, i32 0, i32 1
  store i32 262, ptr %72, align 8
  br label %73

73:                                               ; preds = %65, %62
  br label %74

74:                                               ; preds = %73
  br label %75

75:                                               ; preds = %74, %39, %30
  br label %113

76:                                               ; preds = %6
  %77 = load ptr, ptr getelementptr inbounds (%struct._zend_assert_globals, ptr @assert_globals, i32 0, i32 1), align 8
  %78 = icmp ne ptr %77, null
  br i1 %78, label %79, label %81

79:                                               ; preds = %76
  %80 = load ptr, ptr getelementptr inbounds (%struct._zend_assert_globals, ptr @assert_globals, i32 0, i32 1), align 8
  call void @free(ptr noundef %80) #8
  br label %81

81:                                               ; preds = %79, %76
  %82 = load ptr, ptr %12, align 8
  %83 = icmp ne ptr %82, null
  br i1 %83, label %84, label %111

84:                                               ; preds = %81
  %85 = load ptr, ptr %12, align 8
  %86 = getelementptr inbounds %struct._zend_string, ptr %85, i32 0, i32 2
  %87 = load i64, ptr %86, align 8
  %88 = icmp ne i64 %87, 0
  br i1 %88, label %89, label %111

89:                                               ; preds = %84
  %90 = load i32, ptr %16, align 4
  %91 = call zeroext i1 @php_must_emit_ini_deprecation(i32 noundef %90)
  br i1 %91, label %92, label %93

92:                                               ; preds = %89
  call void (ptr, i32, ptr, ...) @php_error_docref(ptr noundef null, i32 noundef 8192, ptr noundef @.str.13)
  br label %93

93:                                               ; preds = %92, %89
  %94 = load ptr, ptr %12, align 8
  %95 = getelementptr inbounds %struct._zend_string, ptr %94, i32 0, i32 2
  %96 = load i64, ptr %95, align 8
  %97 = add i64 %96, 1
  %98 = call noalias ptr @__zend_malloc(i64 noundef %97) #11
  store ptr %98, ptr getelementptr inbounds (%struct._zend_assert_globals, ptr @assert_globals, i32 0, i32 1), align 8
  %99 = load ptr, ptr getelementptr inbounds (%struct._zend_assert_globals, ptr @assert_globals, i32 0, i32 1), align 8
  %100 = load ptr, ptr %12, align 8
  %101 = getelementptr inbounds %struct._zend_string, ptr %100, i32 0, i32 3
  %102 = getelementptr inbounds [1 x i8], ptr %101, i64 0, i64 0
  %103 = load ptr, ptr %12, align 8
  %104 = getelementptr inbounds %struct._zend_string, ptr %103, i32 0, i32 2
  %105 = load i64, ptr %104, align 8
  call void @llvm.memcpy.p0.p0.i64(ptr align 1 %99, ptr align 8 %102, i64 %105, i1 false)
  %106 = load ptr, ptr getelementptr inbounds (%struct._zend_assert_globals, ptr @assert_globals, i32 0, i32 1), align 8
  %107 = load ptr, ptr %12, align 8
  %108 = getelementptr inbounds %struct._zend_string, ptr %107, i32 0, i32 2
  %109 = load i64, ptr %108, align 8
  %110 = getelementptr inbounds i8, ptr %106, i64 %109
  store i8 0, ptr %110, align 1
  br label %112

111:                                              ; preds = %84, %81
  store ptr null, ptr getelementptr inbounds (%struct._zend_assert_globals, ptr @assert_globals, i32 0, i32 1), align 8
  br label %112

112:                                              ; preds = %111, %93
  br label %113

113:                                              ; preds = %112, %75
  ret i32 0
}