; Function Attrs: nounwind uwtable
define internal noundef i32 @OnChangeCallback(ptr nocapture readnone %0, ptr noundef %1, ptr nocapture readnone %2, ptr nocapture readnone %3, ptr nocapture readnone %4, i32 noundef %5) #0 {
  %7 = load ptr, ptr getelementptr inbounds (%struct._zend_executor_globals, ptr @executor_globals, i64 0, i32 17), align 8
  %.not = icmp eq ptr %7, null
  br i1 %.not, label %24, label %8

8:                                                ; preds = %6
  %9 = load i8, ptr getelementptr inbounds (%struct._zend_assert_globals, ptr @assert_globals, i64 0, i32 0, i32 1), align 8
  %.not24 = icmp eq i8 %9, 0
  br i1 %.not24, label %11, label %10

10:                                               ; preds = %8
  tail call void @zval_ptr_dtor(ptr noundef nonnull @assert_globals) #8
  store i32 0, ptr getelementptr inbounds (%struct._zend_assert_globals, ptr @assert_globals, i64 0, i32 0, i32 1), align 8
  br label %11

11:                                               ; preds = %10, %8
  %.not25 = icmp eq ptr %1, null
  br i1 %.not25, label %40, label %12

12:                                               ; preds = %11
  %13 = getelementptr inbounds i8, ptr %1, i64 16
  %14 = load i64, ptr %13, align 8
  %.not27 = icmp eq i64 %14, 0
  br i1 %.not27, label %40, label %15

15:                                               ; preds = %12
  switch i32 %5, label %16 [
    i32 8, label %php_must_emit_ini_deprecation.exit
    i32 2, label %php_must_emit_ini_deprecation.exit
    i32 64, label %php_must_emit_ini_deprecation.exit
  ]

16:                                               ; preds = %15
  tail call void (ptr, i32, ptr, ...) @php_error_docref(ptr noundef null, i32 noundef 8192, ptr noundef nonnull @.str.13) #8
  br label %php_must_emit_ini_deprecation.exit

php_must_emit_ini_deprecation.exit:               ; preds = %15, %15, %15, %16
  store ptr %1, ptr @assert_globals, align 8
  %17 = getelementptr inbounds i8, ptr %1, i64 4
  %18 = load i32, ptr %17, align 4
  %19 = and i32 %18, 64
  %.not28 = icmp eq i32 %19, 0
  br i1 %.not28, label %21, label %20

20:                                               ; preds = %php_must_emit_ini_deprecation.exit
  store i32 6, ptr getelementptr inbounds (%struct._zend_assert_globals, ptr @assert_globals, i64 0, i32 0, i32 1), align 8
  br label %40

21:                                               ; preds = %php_must_emit_ini_deprecation.exit
  %22 = load i32, ptr %1, align 4
  %23 = add i32 %22, 1
  store i32 %23, ptr %1, align 4
  store i32 262, ptr getelementptr inbounds (%struct._zend_assert_globals, ptr @assert_globals, i64 0, i32 0, i32 1), align 8
  br label %40

24:                                               ; preds = %6
  %25 = load ptr, ptr getelementptr inbounds (%struct._zend_assert_globals, ptr @assert_globals, i64 0, i32 1), align 8
  %.not21 = icmp eq ptr %25, null
  br i1 %.not21, label %27, label %26

26:                                               ; preds = %24
  tail call void @free(ptr noundef nonnull %25) #8
  br label %27

27:                                               ; preds = %26, %24
  %.not22 = icmp eq ptr %1, null
  br i1 %.not22, label %39, label %28

28:                                               ; preds = %27
  %29 = getelementptr inbounds i8, ptr %1, i64 16
  %30 = load i64, ptr %29, align 8
  %.not23 = icmp eq i64 %30, 0
  br i1 %.not23, label %39, label %31

31:                                               ; preds = %28
  switch i32 %5, label %32 [
    i32 8, label %php_must_emit_ini_deprecation.exit29
    i32 2, label %php_must_emit_ini_deprecation.exit29
    i32 64, label %php_must_emit_ini_deprecation.exit29
  ]

32:                                               ; preds = %31
  tail call void (ptr, i32, ptr, ...) @php_error_docref(ptr noundef null, i32 noundef 8192, ptr noundef nonnull @.str.13) #8
  %.pre = load i64, ptr %29, align 8
  br label %php_must_emit_ini_deprecation.exit29

php_must_emit_ini_deprecation.exit29:             ; preds = %31, %31, %31, %32
  %33 = phi i64 [ %30, %31 ], [ %30, %31 ], [ %30, %31 ], [ %.pre, %32 ]
  %34 = add i64 %33, 1
  %35 = tail call noalias ptr @__zend_malloc(i64 noundef %34) #10
  store ptr %35, ptr getelementptr inbounds (%struct._zend_assert_globals, ptr @assert_globals, i64 0, i32 1), align 8
  %36 = getelementptr inbounds i8, ptr %1, i64 24
  %37 = load i64, ptr %29, align 8
  tail call void @llvm.memcpy.p0.p0.i64(ptr align 1 %35, ptr nonnull align 8 %36, i64 %37, i1 false)
  %38 = getelementptr inbounds i8, ptr %35, i64 %37
  store i8 0, ptr %38, align 1
  br label %40

39:                                               ; preds = %28, %27
  store ptr null, ptr getelementptr inbounds (%struct._zend_assert_globals, ptr @assert_globals, i64 0, i32 1), align 8
  br label %40

40:                                               ; preds = %php_must_emit_ini_deprecation.exit29, %39, %11, %12, %20, %21
  ret i32 0
}